memcpy = 0x2f8524;
memset = 0x2f8308;
wcslen = 0x10082c;
wcsncpy = 0x1017f4;
swprintf = 0x100f5c;
malloc = 0x779524;
alloc_aligned = 0x1328fc;

GSPGPU_WriteHWRegs = 0x12ab08;
GSPGPU_FlushDataCache = 0x136f14;
GX_Cmd4 = 0x137014;

svcSleepThread = 0x128460;

returnToGame = 0x626c24;

_ZN12_GLOBAL__N_126NETGAME_PACKET_00_RECEIVEDE = 0x1814b4;
_ZN12_GLOBAL__N_116SYSTEM_TASK_HOOKE = 0x1b6e0c;

_Znwj = 0x13a02c;
_Znaj = 0x13a02c;
_ZdlPvj = 0x2f89e4;
_ZdaPv = 0x2f89e4;

_ZN4sead15CriticalSection4ExitEv = 0x138d68;

_ZN4sead13ControllerMgr6IsHeldEm = 0x304aa4;
_ZN4sead13ControllerMgr9IsPressedEm = 0x521430;

_ZN7netgame13EnqueuePacketEhhPKvj = 0x6244c0;
_ZN7netgame14GetPlayerActorEhb = 0x5c2ee8;
_ZN7netgame20GetPlayerCoordinatesEPmS0_hb = 0x5c03f4;

_ZN7netgame10NetGameMgr11s_pInstanceE = 0x953644;
_ZN7netgame10NetGameMgr8Receiver9GetBufferEh = 0x75ea08;
_ZN7netgame10NetGameMgr8Receiver9GetPacketEh = 0x75ea30;
_ZN7netgame10NetGameMgr8Receiver12SetIsEnabledEhb = 0x624ad4;
_ZN7netgame10NetGameMgr8Receiver13SetWasHandledEhb = 0x624ac4;
_ZNK7netgame10NetGameMgr13GetMyPlayerNoEv = 0x75e00c;

_ZN4item7MapItem5PlaceEv = 0x593dd0;

_ZN3map15GetCurrentMapIDEv = 0x2f73ac;

_ZN3oml9framework12_GLOBAL__N_119s_pFactoryFunctionsE = 0x9752b0;
_ZN3oml9framework12_GLOBAL__N_116s_ProcessIDCountE = 0x9752b4;
_ZN3oml9framework12_GLOBAL__N_122s_pProcessDescriptionsE = 0x9752ac;

_ZN3oml9framework7ProcessnwEj = 0x5294d0;
_ZN3oml9framework7ProcessdlEPv = 0x313b60;
_ZN3oml9framework7ProcessC2Ev = 0x521180;
_ZN3oml9framework7ProcessD1Ev = 0x5211d4;
_ZN3oml9framework7Process20ProcessStartupResultENS0_6ResultE = 0x521130;
_ZN3oml9framework7Process8OnNotifyEv = 0x520758;

_ZN3oml9framework29PROCESSMANAGER_GETDESCRIPTIONE = 0x5203dc;
_ZN3oml9framework26PROCESSMANAGER_CALLCREATORE = 0x520410;
_ZN3oml9framework28PROCESSMANAGER_CALLDESTROYERE = 0x520424;
_ZN3oml9framework38PROCESSMANAGER_CREATE_PROCESS_ID_CHECKE = 0x529418;
_ZN3oml9framework14ProcessManager13CreateProcessENS0_9ProcessIDEll = 0x5293fc;

_ZN6script11RenderTrace7SetTextEPKPKDsS4_ = 0x6014b8;
_ZN6script11RenderTrace8SetText2EPKPKDs = 0x601354;

_ZN6script10RenderRuby12SetTextBoxesEPKN2nw3lyt7TextBoxES5_S5_S5_ = 0x5d64d4;
_ZN6script10RenderRuby10CommitTextEv = 0x5d6840;
_ZN6script10RenderRuby5ClearEv = 0x5d6714;
_ZN6script10RenderRubyC1Ejj = 0x5d6ac4;
_ZN6script10RenderRubyD1Ev = 0x5d700c;

_ZN6script12RenderGarden12SetTextBoxesEPN2nw3lyt7TextBoxES4_ = 0x5e27a0;
_ZN6script12RenderGarden10CommitTextEv = 0x5e2a9c;
_ZN6script12RenderGarden5ClearEv = 0x5e290c;
_ZN6script12RenderGardenC1Ej = 0x5e2c30;
_ZN6script12RenderGardenD1Ev = 0x5e290c;

_ZN4font3Mgr11s_pInstanceE = 0x9529c8;
_ZNK4font3Mgr11GetFontNameENS_6FontIDE = 0x747d90;
_ZNK4font3Mgr7GetFontENS_6FontIDE = 0x52ddbc;

_ZN2nw3lyt19ArcResourceAccessor10RegistFontEPKcPKNS_4font4FontE = 0x4b433c;

_ZN2nw3lyt4Pane11AppendChildEPS1_ = 0x4b6444;
_ZN2nw3lyt4Pane11RemoveChildEPS1_ = 0x4b6498;

_ZN4ssys2ma9Allocator15GetGuiAllocatorEv = 0x569880;
_ZN4ssys2ma9Allocator20GetResourceAllocatorEv = 0x5698f4;

_ZN4ssys2ma3lyt9AnimationC1Ev = 0x126224;
_ZN4ssys2ma3lyt9AnimationD1Ev = 0x5693bc;
_ZN4ssys2ma3lyt9Animation8SetFrameEf = 0x569310;
_ZN4ssys2ma3lyt9Animation10InitializeEPKcPKNS1_15ResAccInterfaceE = 0x569114;
_ZN4ssys2ma3lyt9Animation13IncreaseFrameEv = 0x569074;
_ZNK4ssys2ma3lyt9Animation6IsDoneEv = 0x74fdf4;

_ZN4ssys2ma3lyt15ArcResAccReaderC1Ev = 0x120d8c;
_ZN4ssys2ma3lyt15ArcResAccReaderD1Ev = 0x567a20;
_ZN4ssys2ma3lyt15ArcResAccReader7ReadArcEPKc = 0x567954;
_ZN4ssys2ma3lyt15ArcResAccReader5ClearEv = 0x133a44;

_ZN4ssys2ma3lyt9ArcResAcc7SetDataEPKvPKc = 0x5695c8;

_ZN4ssys2ma9LoadSplit4ReadERKN4sead14SafeStringBaseIKcEEPNS2_4HeapEmm = 0x56a4cc;

_ZN4sead7HeapMgr14GetCurrentHeapEv = 0x3045dc;
_ZN4sead7ExpHeap10CreateRootEPvjPKNS_14SafeStringBaseIcEEb = 0x133540;
_ZN4sead7HeapMgr13s_pSystemHeapE = 0x95c3f0;
_ZN4sead7HeapMgr13s_ppRootHeapsE = 0xae55cc;
_ZN4sead14SafeStringBaseIKcED1Ev = 0x2f6de4;
_ZN4sead14SafeStringBaseIKcED0Ev = 0x810da8;
_ZN4sead14SafeStringBaseIKcE5SetNTEv = 0x8273e0;

_ZN4ssys2ma3lyt6Layout5BuildEPKcPKNS1_15ArcResAccReaderEm = 0x568cb4;
_ZN4ssys2ma3lyt6Layout8FindPaneEPKc = 0x5682bc;
_ZN4ssys2ma3lyt6Layout11FindTextBoxEPKc = 0x5685b0;
_ZN4ssys2ma3lyt6Layout7AnimateEv = 0x568740;
_ZN4ssys2ma3lyt6Layout18UnbindAllAnimationEv = 0x133a94;
_ZN4ssys2ma3lyt6Layout9FindGroupEPKc = 0x4b4690;
_ZN4ssys2ma3lyt6Layout13BindAnimationEPNS1_9AnimationEPKN2nw3lyt5GroupEb = 0x568160;
_ZN4ssys2ma3lyt6Layout15UnbindAnimationEPNS1_9AnimationEPKN2nw3lyt5GroupEb = 0x5684b4;

_ZN4ssys2ma3lyt9LayoutMgr3GetEv = 0x133a9c;
_ZN4ssys2ma3lyt9LayoutMgr8RegisterEPNS1_6Base2DEb = 0x56999c;

_ZN6LayoutC1Ev = 0x126574;
_ZN6LayoutD1Ev = 0x5bf25c;

_ZN15CommonScrollBarC1EPv = 0x29a0e8;
_ZN15CommonScrollBar10InitializeEO20ScrollBarDescription = 0x299a10;
_ZN15CommonScrollBar9SetParentEPN2nw3lyt4PaneE = 0x298118;
_ZN15CommonScrollBar7ProcessEv = 0x299d34;
_ZN15CommonScrollBar8FinalizeEv = 0x133af0;
_ZN15CommonScrollBarD1Ev = 0x29a2c0;

_ZN4BaseD2Ev = 0x316fa8;
_ZNK4Base13CanInitializeEv = 0x529480;
_ZN4Base27ProcessInitializationResultEN3oml9framework6ResultE = 0x520658;
_ZNK4Base11CanFinalizeEv = 0x529494;
_ZN4Base25ProcessFinalizationResultEN3oml9framework6ResultE = 0x520660;
_ZNK4Base10CanProcessEv = 0x5293e8;
_ZN4Base23ProcessProcessingResultEN3oml9framework6ResultE = 0x52075c;
_ZNK4Base10CanStartupEv = 0x52946c;
_ZN4Base4Unk0Ev = 0x747d10;

_ZN12_GLOBAL__N_115SIMPLE_WTW_ADDRE = 0x64f26c;
WEATHER_MOD = 0x62ec00;